(dp1
S'radius1'
p2
F500
sS'z2_max'
p3
F2050
sS'radius2'
p4
F500
sS'z1_bottom'
p5
F3150
sS'x1_max'
p6
F3200
sS'y1_verts'
p7
(lp8
F-1475.5336403581159
aF-822.01437309183802
aF-227.90594830431655
aF-386.33486158098731
aF-623.97823149599935
aF-604.17461733641267
aF-227.90594830431655
aF-1020.0505146876794
aF-1594.3553253156206
aF-1574.5517111560348
aF-1297.3011129218594
aF-1396.3191837197774
aF-1475.5336403581159
asS'x1_verts'
p9
(lp10
F-120.86173387456893
aF217.88504245497916
aF-139.68099922621059
aF-1005.3672054017161
aF-2002.788269038715
aF-3019.0285980273529
aF-3884.7148042028603
aF-4204.6423151807649
aF-3809.4377427962945
aF-2360.3543107199021
aF-1494.6681045443956
aF-666.62042907216983
aF-120.86173387456893
asS'y1_max'
p11
F3000
sS'dens_prism'
p12
F1200
sS'y_verts1'
p13
(lp14
F3000
aF3000
aI2300
aI2300
aF3000
asS'y_verts2'
p15
(lp16
F4000
aF4000
aF2000
aF2000
aF4000
asS'dens_spheres'
p17
F1100
sS'polygons'
p18
(lp19
ccopy_reg
_reconstructor
p20
(cfatiando.mesher
PolygonalPrism
p21
c__builtin__
object
p22
NtRp23
(dp24
S'nverts'
p25
I13
sS'props'
p26
(dp27
S'density'
p28
F1200
ssS'y'
cnumpy.core.multiarray
_reconstruct
p29
(cnumpy
ndarray
p30
(I0
tS'b'
tRp31
(I1
(I13
tcnumpy
dtype
p32
(S'f8'
I0
I1
tRp33
(I3
S'<'
NNNI-1
I-1
I0
tbI00
S'\xbc7\x9er"\x0e\x97\xc0\x18\xbb\xa3o\x1d\xb0\x89\xc0\x00]L\x87\xfd|l\xc0p0\xd1\x97[%x\xc0\xe0\xd9\x08k\xd3\x7f\x83\xc0\xa8)\xc6\x9de\xe1\x82\xc0\x00]L\x87\xfd|l\xc0h\x9c>tg\xe0\x8f\xc0 Hf\xdak\xe9\x98\xc0\x08\xf0\xc4\xf34\x9a\x98\xc0(\x1f\xf2V4E\x94\xc0p\xd7\x18\xd8F\xd1\x95\xc0\xbc7\x9er"\x0e\x97\xc0'
tbsS'x'
g29
(g30
(I0
tS'b'
tRp34
(I1
(I13
tg33
I00
S"@H\xd6\xa5&7^\xc0\xa0\xf6\x8dDR<k@\xa0\xa5\xe3\xbe\xcaua\xc0H\xbab\t\xf0j\x8f\xc0\xec\xb6\xff/'K\x9f\xc0l\x90f\xa4\x0e\x96\xa7\xc0\xa8\x04\xd1\xfamY\xae\xc0\x1c\x87\xc4n\xa4l\xb0\xc0J\xe4\xd2\x1f\xe0\xc2\xad\xc04\xf56h\xb5p\xa2\xc0\xf4\x01\x99#\xacZ\x97\xc0\xa8s\x84\xa3\xf6\xd4\x84\xc0@H\xd6\xa5&7^\xc0"
tbsS'z1'
p35
F450
sS'z2'
p36
F3150
sbasS'y2_min'
p37
F2000
sS'x2_min'
p38
F-3000
sS'z1_top'
p39
F450
sS'y1_min'
p40
I2300
sS'prisms'
p41
(lp42
g20
(cfatiando.mesher
Prism
p43
g22
NtRp44
(dp45
S'y2'
p46
F3000
sS'y1'
p47
F2300
sg26
(dp48
g28
F1000
ssS'x2'
p49
F3200
sS'x1'
p50
F2200
sg35
F450
sg36
F950
sbag20
(g43
g22
NtRp51
(dp52
g46
F4000
sg47
F2000
sg26
(dp53
g28
F1000
ssg49
F-2000
sg50
F-3000
sg35
F500
sg36
F2050
sbasS'metadata'
p54
S'Generated by synthetic_model.ipynb on 03 April 2021 22:21:19 UTC'
p55
sS'y2_max'
p56
F4000
sS'dens_rec_prisms'
p57
F1000
sS'x2_max'
p58
F-2000
sS'xc2'
p59
F800
sS'xc1'
p60
F1800
sS'zc1'
p61
F1000
sS'zc2'
p62
F1000
sS'x_verts2'
p63
(lp64
F-2000
aF-3000
aF-3000
aF-2000
aF-2000
asS'x_verts1'
p65
(lp66
F3200
aF2200
aF2200
aF3200
aF3200
asS'z2_min'
p67
F500
sS'z1_max'
p68
F950
sS'z1_min'
p69
F450
sS'x1_min'
p70
F2200
sS'verts1'
p71
(lp72
(F-120.86173387456893
F-1475.5336403581159
tp73
a(F217.88504245497916
F-822.01437309183802
tp74
a(F-139.68099922621059
F-227.90594830431655
tp75
a(F-1005.3672054017161
F-386.33486158098731
tp76
a(F-2002.788269038715
F-623.97823149599935
tp77
a(F-3019.0285980273529
F-604.17461733641267
tp78
a(F-3884.7148042028603
F-227.90594830431655
tp79
a(F-4204.6423151807649
F-1020.0505146876794
tp80
a(F-3809.4377427962945
F-1594.3553253156206
tp81
a(F-2360.3543107199021
F-1574.5517111560348
tp82
a(F-1494.6681045443956
F-1297.3011129218594
tp83
a(F-666.62042907216983
F-1396.3191837197774
tp84
a(F-120.86173387456893
F-1475.5336403581159
tp85
asS'yc2'
p86
F800
sS'yc1'
p87
F-1800
sS'spheres'
p88
(lp89
g20
(cfatiando.mesher
Sphere
p90
g22
NtRp91
(dp92
S'center'
p93
g29
(g30
(I0
tS'b'
tRp94
(I1
(I3
tg33
I00
S'\x00\x00\x00\x00\x00 \x9c@\x00\x00\x00\x00\x00 \x9c\xc0\x00\x00\x00\x00\x00@\x8f@'
tbsS'radius'
p95
F500
sg26
(dp96
g28
F1100
ssS'y'
F-1800
sS'x'
F1800
sS'z'
F1000
sbag20
(g90
g22
NtRp97
(dp98
g93
g29
(g30
(I0
tS'b'
tRp99
(I1
(I3
tg33
I00
S'\x00\x00\x00\x00\x00\x00\x89@\x00\x00\x00\x00\x00\x00\x89@\x00\x00\x00\x00\x00@\x8f@'
tbsg95
F500
sg26
(dp100
g28
F1100
ssS'y'
F800
sS'x'
F800
sS'z'
F1000
sbas.